target datalayout = "e-m:e-p270:32:32-p271:32:32-p272:64:64-i64:64-i128:128-f80:128-n8:16:32:64-S128"
target triple = "x86_64-pc-linux-gnu"

; Function Attrs: mustprogress nounwind uwtable
define i32 @dt_rawspeed_crop_dcraw_filters(i32 noundef %0, i32 noundef %1, i32 noundef %2) #0 {
  %4 = alloca i32, align 4
  %5 = alloca i32, align 4
  %6 = alloca i32, align 4
  %7 = alloca i32, align 4
  store i32 %0, ptr %5, align 4, !tbaa !11
  store i32 %1, ptr %6, align 4, !tbaa !11
  store i32 %2, ptr %7, align 4, !tbaa !11
  %8 = load i32, ptr %5, align 4, !tbaa !11
  %9 = icmp ne i32 %8, 0
  br i1 %9, label %10, label %13

10:                                               ; preds = %3
  %11 = load i32, ptr %5, align 4, !tbaa !11
  %12 = icmp eq i32 %11, 9
  br i1 %12, label %13, label %15

13:                                               ; preds = %10, %3
  %14 = load i32, ptr %5, align 4, !tbaa !11
  store i32 %14, ptr %4, align 4
  br label %20

15:                                               ; preds = %10
  %16 = load i32, ptr %5, align 4, !tbaa !11
  %17 = load i32, ptr %6, align 4, !tbaa !11
  %18 = load i32, ptr %7, align 4, !tbaa !11
  %19 = call noundef i32 @_ZN8rawspeed16ColorFilterArray16shiftDcrawFilterEjii(i32 noundef %16, i32 noundef %17, i32 noundef %18) #32
  store i32 %19, ptr %4, align 4
  br label %20

20:                                               ; preds = %15, %13
  %21 = load i32, ptr %4, align 4
  ret i32 %21
}