; Function Attrs: mustprogress nofree nosync nounwind willreturn memory(none) uwtable
define noundef i32 @dt_rawspeed_crop_dcraw_filters(i32 noundef %0, i32 noundef %1, i32 noundef %2) local_unnamed_addr #7 {
  switch i32 %0, label %4 [
    i32 9, label %6
    i32 0, label %6
  ]

4:                                                ; preds = %3
  %5 = tail call noundef i32 @_ZN8rawspeed16ColorFilterArray16shiftDcrawFilterEjii(i32 noundef %0, i32 noundef %1, i32 noundef %2) #28
  br label %6

6:                                                ; preds = %3, %3, %4
  %.0 = phi i32 [ %5, %4 ], [ %0, %3 ], [ %0, %3 ]
  ret i32 %.0
}